target datalayout = "e-m:e-p270:32:32-p271:32:32-p272:64:64-i64:64-i128:128-f80:128-n8:16:32:64-S128"
target triple = "x86_64-pc-linux-gnu"

%struct._packet_info = type { ptr, ptr, i32, i32, %struct.nstime_t, %struct.nstime_t, %struct.nstime_t, i8, ptr, ptr, ptr, ptr, %struct._address, %struct._address, %struct._address, %struct._address, %struct._address, %struct._address, i32, ptr, i8, [3 x i8], %struct.anon, i32, i32, i32, i32, ptr, i8, ptr, ptr, i16, i16, i32, i32, i16, i32, i32, ptr, ptr, ptr, i8, i8, i16, i16, i16, i32, i16, i16, ptr, ptr, ptr, ptr, ptr, i32, i32 }
%struct.nstime_t = type { i64, i32 }
%struct._address = type { i32, i32, ptr, ptr }
%struct.anon = type { i8, [3 x i8] }
%struct._asn1_ctx_t = type { i32, i32, i8, ptr, ptr, ptr, ptr, ptr, %struct.anon.0, %struct.anon.3, %struct.anon.4, ptr }
%struct.anon.0 = type { i32, i8, i8, i8, ptr, ptr, i32, i32, ptr, ptr, ptr, %union.anon }
%union.anon = type { %struct.anon.1 }
%struct.anon.1 = type { ptr }
%struct.anon.3 = type { ptr, ptr, ptr }
%struct.anon.4 = type { i32, i8, ptr, i32, i32, ptr, ptr, ptr, %union.anon.5 }
%union.anon.5 = type { %struct.anon.6 }
%struct.anon.6 = type { ptr }
%struct.s1ap_private_data = type { ptr, i32, i32, i32, i32, i32, i8, ptr, ptr, ptr, i16, i8, i8, i32 }

@hf_s1ap_s1ap_SourceeNB_ToTargeteNB_TransparentContainer_PDU = internal global i32 0, align 4
@proto_s1ap = internal global i32 0, align 4
@hf_s1ap_Source_ToTarget_TransparentContainer_PDU = internal global i32 0, align 4
@ett_s1ap_ToTargetTransparentContainer = internal global i32 0, align 4
@g_s1ap_dissect_container = internal global i8 1, align 1

; Function Attrs: null_pointer_is_valid sspstrong uwtable
define hidden i32 @dissect_s1ap_SourceeNB_ToTargeteNB_TransparentContainer_PDU(ptr noundef %0, ptr noundef %1, ptr noundef %2, ptr noundef %3) #0 {
  %5 = alloca ptr, align 8
  %6 = alloca ptr, align 8
  %7 = alloca ptr, align 8
  %8 = alloca ptr, align 8
  %9 = alloca i32, align 4
  %10 = alloca %struct._asn1_ctx_t, align 8
  store ptr %0, ptr %5, align 8
  store ptr %1, ptr %6, align 8
  store ptr %2, ptr %7, align 8
  store ptr %3, ptr %8, align 8
  call void @llvm.lifetime.start.p0(i64 4, ptr %9) #8
  store i32 0, ptr %9, align 4
  call void @llvm.lifetime.start.p0(i64 208, ptr %10) #8
  %11 = load ptr, ptr %6, align 8
  call void @asn1_ctx_init(ptr noundef %10, i32 noundef 1, i1 noundef zeroext true, ptr noundef %11)
  %12 = load ptr, ptr %5, align 8
  %13 = load i32, ptr %9, align 4
  %14 = load ptr, ptr %7, align 8
  %15 = load i32, ptr @hf_s1ap_s1ap_SourceeNB_ToTargeteNB_TransparentContainer_PDU, align 4
  %16 = call i32 @dissect_s1ap_SourceeNB_ToTargeteNB_TransparentContainer(ptr noundef %12, i32 noundef %13, ptr noundef %10, ptr noundef %14, i32 noundef %15)
  store i32 %16, ptr %9, align 4
  %17 = load i32, ptr %9, align 4
  %18 = add i32 %17, 7
  store i32 %18, ptr %9, align 4
  %19 = load i32, ptr %9, align 4
  %20 = ashr i32 %19, 3
  store i32 %20, ptr %9, align 4
  %21 = load i32, ptr %9, align 4
  call void @llvm.lifetime.end.p0(i64 208, ptr %10) #8
  call void @llvm.lifetime.end.p0(i64 4, ptr %9) #8
  ret i32 %21
}

; Function Attrs: null_pointer_is_valid sspstrong uwtable
define internal ptr @s1ap_get_private_data(ptr noundef %0) #0 {
  %2 = alloca ptr, align 8
  %3 = alloca ptr, align 8
  store ptr %0, ptr %2, align 8
  call void @llvm.lifetime.start.p0(i64 8, ptr %3) #8
  %4 = load ptr, ptr %2, align 8
  %5 = getelementptr inbounds nuw %struct._packet_info, ptr %4, i32 0, i32 51
  %6 = load ptr, ptr %5, align 8
  %7 = load ptr, ptr %2, align 8
  %8 = load i32, ptr @proto_s1ap, align 4
  %9 = call ptr @p_get_proto_data(ptr noundef %6, ptr noundef %7, i32 noundef %8, i32 noundef 0)
  store ptr %9, ptr %3, align 8
  %10 = load ptr, ptr %3, align 8
  %11 = icmp ne ptr %10, null
  br i1 %11, label %23, label %12

12:                                               ; preds = %1
  %13 = load ptr, ptr %2, align 8
  %14 = getelementptr inbounds nuw %struct._packet_info, ptr %13, i32 0, i32 51
  %15 = load ptr, ptr %14, align 8
  %16 = call noalias ptr @wmem_alloc0(ptr noundef %15, i64 noundef 64) #11
  store ptr %16, ptr %3, align 8
  %17 = load ptr, ptr %2, align 8
  %18 = getelementptr inbounds nuw %struct._packet_info, ptr %17, i32 0, i32 51
  %19 = load ptr, ptr %18, align 8
  %20 = load ptr, ptr %2, align 8
  %21 = load i32, ptr @proto_s1ap, align 4
  %22 = load ptr, ptr %3, align 8
  call void @p_add_proto_data(ptr noundef %19, ptr noundef %20, i32 noundef %21, i32 noundef 0, ptr noundef %22)
  br label %23

23:                                               ; preds = %12, %1
  %24 = load ptr, ptr %3, align 8
  call void @llvm.lifetime.end.p0(i64 8, ptr %3) #8
  ret ptr %24
}

; Function Attrs: null_pointer_is_valid sspstrong uwtable
define internal i32 @dissect_s1ap_Source_ToTarget_TransparentContainer(ptr noundef %0, i32 noundef %1, ptr noundef %2, ptr noundef %3, i32 noundef %4) #0 {
  %6 = alloca ptr, align 8
  %7 = alloca i32, align 4
  %8 = alloca ptr, align 8
  %9 = alloca ptr, align 8
  %10 = alloca i32, align 4
  %11 = alloca ptr, align 8
  %12 = alloca ptr, align 8
  %13 = alloca ptr, align 8
  store ptr %0, ptr %6, align 8
  store i32 %1, ptr %7, align 4
  store ptr %2, ptr %8, align 8
  store ptr %3, ptr %9, align 8
  store i32 %4, ptr %10, align 4
  call void @llvm.lifetime.start.p0(i64 8, ptr %11) #8
  call void @llvm.lifetime.start.p0(i64 8, ptr %12) #8
  %14 = load ptr, ptr %6, align 8
  %15 = load i32, ptr %7, align 4
  %16 = load ptr, ptr %8, align 8
  %17 = load ptr, ptr %9, align 8
  %18 = load i32, ptr %10, align 4
  %19 = call i32 @dissect_per_octet_string(ptr noundef %14, i32 noundef %15, ptr noundef %16, ptr noundef %17, i32 noundef %18, i32 noundef -1, i32 noundef -1, i1 noundef zeroext false, ptr noundef %11)
  store i32 %19, ptr %7, align 4
  %20 = load i8, ptr @g_s1ap_dissect_container, align 1, !range !8, !noundef !9
  %21 = trunc i8 %20 to i1
  br i1 %21, label %22, label %96

22:                                               ; preds = %5
  %23 = load ptr, ptr %11, align 8
  %24 = icmp ne ptr %23, null
  br i1 %24, label %25, label %96

25:                                               ; preds = %22
  %26 = load ptr, ptr %11, align 8
  %27 = call i32 @tvb_reported_length(ptr noundef %26)
  %28 = icmp ugt i32 %27, 0
  br i1 %28, label %29, label %96

29:                                               ; preds = %25
  call void @llvm.lifetime.start.p0(i64 8, ptr %13) #8
  %30 = load ptr, ptr %8, align 8
  %31 = getelementptr inbounds nuw %struct._asn1_ctx_t, ptr %30, i32 0, i32 3
  %32 = load ptr, ptr %31, align 8
  %33 = call ptr @s1ap_get_private_data(ptr noundef %32)
  store ptr %33, ptr %13, align 8
  %34 = load ptr, ptr %8, align 8
  %35 = getelementptr inbounds nuw %struct._asn1_ctx_t, ptr %34, i32 0, i32 3
  %36 = load ptr, ptr %35, align 8
  %37 = getelementptr inbounds nuw %struct._packet_info, ptr %36, i32 0, i32 1
  %38 = load ptr, ptr %37, align 8
  call void @col_set_writable(ptr noundef %38, i32 noundef 25, i1 noundef zeroext false)
  %39 = load ptr, ptr %8, align 8
  %40 = getelementptr inbounds nuw %struct._asn1_ctx_t, ptr %39, i32 0, i32 4
  %41 = load ptr, ptr %40, align 8
  %42 = load i32, ptr @ett_s1ap_ToTargetTransparentContainer, align 4
  %43 = call ptr @proto_item_add_subtree(ptr noundef %41, i32 noundef %42)
  store ptr %43, ptr %12, align 8
  %44 = load ptr, ptr %13, align 8
  %45 = getelementptr inbounds nuw %struct.s1ap_private_data, ptr %44, i32 0, i32 4
  %46 = load i32, ptr %45, align 4
  switch i32 %46, label %89 [
    i32 0, label %47
    i32 3, label %47
    i32 4, label %47
    i32 6, label %47
    i32 1, label %54
    i32 2, label %61
    i32 5, label %82
  ]

47:                                               ; preds = %29, %29, %29, %29
  %48 = load ptr, ptr %11, align 8
  %49 = load ptr, ptr %8, align 8
  %50 = getelementptr inbounds nuw %struct._asn1_ctx_t, ptr %49, i32 0, i32 3
  %51 = load ptr, ptr %50, align 8
  %52 = load ptr, ptr %12, align 8
  %53 = call i32 @dissect_s1ap_SourceeNB_ToTargeteNB_TransparentContainer_PDU(ptr noundef %48, ptr noundef %51, ptr noundef %52, ptr noundef null)
  br label %90

54:                                               ; preds = %29
  %55 = load ptr, ptr %11, align 8
  %56 = load ptr, ptr %8, align 8
  %57 = getelementptr inbounds nuw %struct._asn1_ctx_t, ptr %56, i32 0, i32 3
  %58 = load ptr, ptr %57, align 8
  %59 = load ptr, ptr %12, align 8
  %60 = call i32 @dissect_ranap_SourceRNC_ToTargetRNC_TransparentContainer_PDU(ptr noundef %55, ptr noundef %58, ptr noundef %59, ptr noundef null)
  br label %90

61:                                               ; preds = %29
  %62 = load ptr, ptr %13, align 8
  %63 = getelementptr inbounds nuw %struct.s1ap_private_data, ptr %62, i32 0, i32 11
  %64 = load i8, ptr %63, align 2, !range !8, !noundef !9
  %65 = trunc i8 %64 to i1
  br i1 %65, label %66, label %72

66:                                               ; preds = %61
  %67 = load ptr, ptr %11, align 8
  %68 = load ptr, ptr %12, align 8
  %69 = load ptr, ptr %8, align 8
  %70 = getelementptr inbounds nuw %struct._asn1_ctx_t, ptr %69, i32 0, i32 3
  %71 = load ptr, ptr %70, align 8
  call void @bssmap_old_bss_to_new_bss_info(ptr noundef %67, ptr noundef %68, ptr noundef %71)
  br label %81

72:                                               ; preds = %61
  %73 = load ptr, ptr %11, align 8
  %74 = load ptr, ptr %12, align 8
  %75 = load ptr, ptr %8, align 8
  %76 = getelementptr inbounds nuw %struct._asn1_ctx_t, ptr %75, i32 0, i32 3
  %77 = load ptr, ptr %76, align 8
  %78 = load ptr, ptr %11, align 8
  %79 = call i32 @tvb_reported_length(ptr noundef %78)
  %80 = call zeroext i16 @de_bssgp_source_BSS_to_target_BSS_transp_cont(ptr noundef %73, ptr noundef %74, ptr noundef %77, i32 noundef 0, i32 noundef %79, ptr noundef null, i32 noundef 0)
  br label %81

81:                                               ; preds = %72, %66
  br label %90

82:                                               ; preds = %29
  %83 = load ptr, ptr %11, align 8
  %84 = load ptr, ptr %8, align 8
  %85 = getelementptr inbounds nuw %struct._asn1_ctx_t, ptr %84, i32 0, i32 3
  %86 = load ptr, ptr %85, align 8
  %87 = load ptr, ptr %12, align 8
  %88 = call i32 @dissect_ngap_SourceNGRANNode_ToTargetNGRANNode_TransparentContainer_PDU(ptr noundef %83, ptr noundef %86, ptr noundef %87, ptr noundef null)
  br label %90

89:                                               ; preds = %29
  br label %90

90:                                               ; preds = %89, %82, %81, %54, %47
  %91 = load ptr, ptr %8, align 8
  %92 = getelementptr inbounds nuw %struct._asn1_ctx_t, ptr %91, i32 0, i32 3
  %93 = load ptr, ptr %92, align 8
  %94 = getelementptr inbounds nuw %struct._packet_info, ptr %93, i32 0, i32 1
  %95 = load ptr, ptr %94, align 8
  call void @col_set_writable(ptr noundef %95, i32 noundef 25, i1 noundef zeroext true)
  call void @llvm.lifetime.end.p0(i64 8, ptr %13) #8
  br label %96

96:                                               ; preds = %90, %25, %22, %5
  %97 = load i32, ptr %7, align 4
  call void @llvm.lifetime.end.p0(i64 8, ptr %12) #8
  call void @llvm.lifetime.end.p0(i64 8, ptr %11) #8
  ret i32 %97
}

; Function Attrs: null_pointer_is_valid sspstrong uwtable
define internal i32 @dissect_Source_ToTarget_TransparentContainer_PDU(ptr noundef %0, ptr noundef %1, ptr noundef %2, ptr noundef %3) #0 {
  %5 = alloca ptr, align 8
  %6 = alloca ptr, align 8
  %7 = alloca ptr, align 8
  %8 = alloca ptr, align 8
  %9 = alloca i32, align 4
  %10 = alloca %struct._asn1_ctx_t, align 8
  store ptr %0, ptr %5, align 8
  store ptr %1, ptr %6, align 8
  store ptr %2, ptr %7, align 8
  store ptr %3, ptr %8, align 8
  call void @llvm.lifetime.start.p0(i64 4, ptr %9) #8
  store i32 0, ptr %9, align 4
  call void @llvm.lifetime.start.p0(i64 208, ptr %10) #8
  %11 = load ptr, ptr %6, align 8
  call void @asn1_ctx_init(ptr noundef %10, i32 noundef 1, i1 noundef zeroext true, ptr noundef %11)
  %12 = load ptr, ptr %5, align 8
  %13 = load i32, ptr %9, align 4
  %14 = load ptr, ptr %7, align 8
  %15 = load i32, ptr @hf_s1ap_Source_ToTarget_TransparentContainer_PDU, align 4
  %16 = call i32 @dissect_s1ap_Source_ToTarget_TransparentContainer(ptr noundef %12, i32 noundef %13, ptr noundef %10, ptr noundef %14, i32 noundef %15)
  store i32 %16, ptr %9, align 4
  %17 = load i32, ptr %9, align 4
  %18 = add i32 %17, 7
  store i32 %18, ptr %9, align 4
  %19 = load i32, ptr %9, align 4
  %20 = ashr i32 %19, 3
  store i32 %20, ptr %9, align 4
  %21 = load i32, ptr %9, align 4
  call void @llvm.lifetime.end.p0(i64 208, ptr %10) #8
  call void @llvm.lifetime.end.p0(i64 4, ptr %9) #8
  ret i32 %21
}