; Function Attrs: null_pointer_is_valid sspstrong uwtable
define internal range(i32 -268435456, 268435456) i32 @dissect_Source_ToTarget_TransparentContainer_PDU(ptr noundef %0, ptr noundef %1, ptr noundef %2, ptr readnone captures(none) %3) #0 {
  %5 = alloca %struct._asn1_ctx_t, align 8
  %6 = alloca ptr, align 8
  %7 = alloca %struct._asn1_ctx_t, align 8
  call void @llvm.lifetime.start.p0(i64 208, ptr nonnull %7) #8
  call void @asn1_ctx_init(ptr noundef nonnull %7, i32 noundef 1, i1 noundef zeroext true, ptr noundef %1)
  %8 = load i32, ptr @hf_s1ap_Source_ToTarget_TransparentContainer_PDU, align 4
  call void @llvm.lifetime.start.p0(i64 8, ptr nonnull %6) #8
  %9 = call i32 @dissect_per_octet_string(ptr noundef %0, i32 noundef 0, ptr noundef nonnull %7, ptr noundef %2, i32 noundef %8, i32 noundef -1, i32 noundef -1, i1 noundef zeroext false, ptr noundef nonnull %6)
  %10 = load i8, ptr @g_s1ap_dissect_container, align 1, !range !8, !noundef !9
  %11 = trunc nuw i8 %10 to i1
  %12 = load ptr, ptr %6, align 8
  %13 = icmp ne ptr %12, null
  %or.cond.i = select i1 %11, i1 %13, i1 false
  br i1 %or.cond.i, label %14, label %dissect_s1ap_Source_ToTarget_TransparentContainer.exit

14:                                               ; preds = %4
  %15 = call i32 @tvb_reported_length(ptr noundef nonnull %12)
  %.not.i = icmp eq i32 %15, 0
  br i1 %.not.i, label %dissect_s1ap_Source_ToTarget_TransparentContainer.exit, label %16

16:                                               ; preds = %14
  %17 = getelementptr inbounds nuw i8, ptr %7, i64 16
  %18 = load ptr, ptr %17, align 8
  %19 = getelementptr inbounds nuw i8, ptr %18, i64 408
  %20 = load ptr, ptr %19, align 8
  %21 = load i32, ptr @proto_s1ap, align 4
  %22 = call ptr @p_get_proto_data(ptr noundef %20, ptr noundef %18, i32 noundef %21, i32 noundef 0)
  %.not.i.i = icmp eq ptr %22, null
  br i1 %.not.i.i, label %23, label %s1ap_get_private_data.exit.i

23:                                               ; preds = %16
  %24 = load ptr, ptr %19, align 8
  %25 = call noalias dereferenceable_or_null(64) ptr @wmem_alloc0(ptr noundef %24, i64 noundef 64) #9
  %26 = load ptr, ptr %19, align 8
  %27 = load i32, ptr @proto_s1ap, align 4
  call void @p_add_proto_data(ptr noundef %26, ptr noundef %18, i32 noundef %27, i32 noundef 0, ptr noundef %25)
  br label %s1ap_get_private_data.exit.i

s1ap_get_private_data.exit.i:                     ; preds = %23, %16
  %.0.i.i = phi ptr [ %22, %16 ], [ %25, %23 ]
  %28 = load ptr, ptr %17, align 8
  %29 = getelementptr inbounds nuw i8, ptr %28, i64 8
  %30 = load ptr, ptr %29, align 8
  call void @col_set_writable(ptr noundef %30, i32 noundef 25, i1 noundef zeroext false)
  %31 = getelementptr inbounds nuw i8, ptr %7, i64 24
  %32 = load ptr, ptr %31, align 8
  %33 = load i32, ptr @ett_s1ap_ToTargetTransparentContainer, align 4
  %34 = call ptr @proto_item_add_subtree(ptr noundef %32, i32 noundef %33)
  %35 = getelementptr inbounds nuw i8, ptr %.0.i.i, i64 20
  %36 = load i32, ptr %35, align 4
  switch i32 %36, label %60 [
    i32 0, label %37
    i32 3, label %37
    i32 4, label %37
    i32 6, label %37
    i32 1, label %42
    i32 2, label %46
    i32 5, label %56
  ]

37:                                               ; preds = %s1ap_get_private_data.exit.i, %s1ap_get_private_data.exit.i, %s1ap_get_private_data.exit.i, %s1ap_get_private_data.exit.i
  %38 = load ptr, ptr %6, align 8
  %39 = load ptr, ptr %17, align 8
  call void @llvm.lifetime.start.p0(i64 208, ptr nonnull %5) #8
  call void @asn1_ctx_init(ptr noundef nonnull %5, i32 noundef 1, i1 noundef zeroext true, ptr noundef %39)
  %40 = load i32, ptr @hf_s1ap_s1ap_SourceeNB_ToTargeteNB_TransparentContainer_PDU, align 4
  %41 = call fastcc i32 @dissect_s1ap_SourceeNB_ToTargeteNB_TransparentContainer(ptr noundef %38, ptr noundef nonnull %5, ptr noundef %34, i32 noundef %40)
  call void @llvm.lifetime.end.p0(i64 208, ptr nonnull %5) #8
  br label %60

42:                                               ; preds = %s1ap_get_private_data.exit.i
  %43 = load ptr, ptr %6, align 8
  %44 = load ptr, ptr %17, align 8
  %45 = call i32 @dissect_ranap_SourceRNC_ToTargetRNC_TransparentContainer_PDU(ptr noundef %43, ptr noundef %44, ptr noundef %34, ptr noundef null)
  br label %60

46:                                               ; preds = %s1ap_get_private_data.exit.i
  %47 = getelementptr inbounds nuw i8, ptr %.0.i.i, i64 58
  %48 = load i8, ptr %47, align 2, !range !8, !noundef !9
  %49 = trunc nuw i8 %48 to i1
  %50 = load ptr, ptr %6, align 8
  %51 = load ptr, ptr %17, align 8
  br i1 %49, label %52, label %53

52:                                               ; preds = %46
  call void @bssmap_old_bss_to_new_bss_info(ptr noundef %50, ptr noundef %34, ptr noundef %51)
  br label %60

53:                                               ; preds = %46
  %54 = call i32 @tvb_reported_length(ptr noundef %50)
  %55 = call zeroext i16 @de_bssgp_source_BSS_to_target_BSS_transp_cont(ptr noundef %50, ptr noundef %34, ptr noundef %51, i32 noundef 0, i32 noundef %54, ptr noundef null, i32 noundef 0)
  br label %60

56:                                               ; preds = %s1ap_get_private_data.exit.i
  %57 = load ptr, ptr %6, align 8
  %58 = load ptr, ptr %17, align 8
  %59 = call i32 @dissect_ngap_SourceNGRANNode_ToTargetNGRANNode_TransparentContainer_PDU(ptr noundef %57, ptr noundef %58, ptr noundef %34, ptr noundef null)
  br label %60

60:                                               ; preds = %56, %53, %52, %42, %37, %s1ap_get_private_data.exit.i
  %61 = load ptr, ptr %17, align 8
  %62 = getelementptr inbounds nuw i8, ptr %61, i64 8
  %63 = load ptr, ptr %62, align 8
  call void @col_set_writable(ptr noundef %63, i32 noundef 25, i1 noundef zeroext true)
  br label %dissect_s1ap_Source_ToTarget_TransparentContainer.exit

dissect_s1ap_Source_ToTarget_TransparentContainer.exit: ; preds = %4, %14, %60
  call void @llvm.lifetime.end.p0(i64 8, ptr nonnull %6) #8
  %64 = add i32 %9, 7
  %65 = ashr i32 %64, 3
  call void @llvm.lifetime.end.p0(i64 208, ptr nonnull %7) #8
  ret i32 %65
}